Certificate:
    Data:
        Version: 3 (0x2)
        Serial Number: 1 (0x1)
        Signature Algorithm: sha256WithRSAEncryption
        Issuer: C=TW, ST=Taiwan, L=Taipei, O=DS, OU=CPE, CN=3de24xplm/emailAddress=admin_platform@dsmail.dstw.com
        Validity
            Not Before: Jan 23 08:33:37 2024 GMT
            Not After : Dec 30 08:33:37 2123 GMT
        Subject: C=TW, ST=Taiwan, L=Taipei, O=CPE, CN=3de24xplm
        Subject Public Key Info:
            Public Key Algorithm: rsaEncryption
                RSA Public-Key: (2048 bit)
                Modulus:
                    00:ed:78:df:86:cd:63:a3:cf:4c:b8:9c:55:bf:aa:
                    fb:3d:e4:76:9e:2c:98:16:a9:61:05:21:66:23:ae:
                    f1:03:0c:a0:63:f9:d5:39:4c:0b:55:81:29:77:e4:
                    41:1c:ef:ad:33:4e:02:81:ca:48:ea:36:08:d5:dc:
                    12:8c:10:7d:89:00:75:8f:01:68:d9:99:36:a1:36:
                    1e:c9:18:03:27:38:c5:bb:b1:31:b3:06:61:0c:0c:
                    3b:29:f4:91:48:20:db:43:a6:f3:23:32:94:8a:2d:
                    f6:7c:18:1b:0e:e5:31:a2:49:3e:7a:f2:d2:4d:15:
                    13:13:f0:94:aa:25:a7:d3:c6:13:47:2a:98:b6:fd:
                    f8:e9:14:00:b9:1f:01:54:47:23:a1:c9:02:ac:1e:
                    46:43:d2:28:fc:5f:45:78:51:33:02:79:e6:71:89:
                    bc:8e:3b:95:c5:d9:c0:a9:57:3e:ff:73:d7:38:f6:
                    b7:0b:7a:74:9a:8b:54:cb:e2:4a:91:eb:e4:8c:2e:
                    f0:87:51:3b:b7:06:fe:92:30:01:5c:0f:a6:79:c3:
                    f3:3a:78:61:9b:6d:49:06:a4:10:ee:80:e0:19:40:
                    e3:9d:0c:26:06:7b:ef:c6:a1:53:3e:60:f4:1f:c7:
                    30:0d:11:01:6c:af:6b:ef:4f:89:b8:15:a1:ac:62:
                    af:f3
                Exponent: 65537 (0x10001)
        X509v3 extensions:
            X509v3 Subject Key Identifier: 
                4B:1A:E7:59:8F:AD:EF:B5:DC:F9:B3:55:75:19:AF:E1:CF:37:2B:A5
            X509v3 Authority Key Identifier: 
                keyid:77:CA:A1:28:A5:34:46:E0:F0:FC:1F:AE:EE:A8:2B:C2:61:11:3E:1F

            X509v3 Basic Constraints: 
                CA:FALSE
            X509v3 Key Usage: 
                Digital Signature, Key Encipherment
            X509v3 Subject Alternative Name: 
                DNS:3de24xplm.com.tw, DNS:untrusted.com.tw, DNS:dbplm.com.tw, DNS:ftsplm.com.tw, DNS:widgetplm.com.tw, IP Address:127.0.0.1, IP Address:0:0:0:0:0:0:0:1
            Netscape Comment: 
                OpenSSL Generated Certificate
    Signature Algorithm: sha256WithRSAEncryption
         af:75:01:32:74:47:5a:f5:24:01:99:8d:65:17:e6:00:b9:96:
         c8:30:46:ab:cd:da:d3:52:27:49:a9:a1:6d:4c:bc:f9:97:a9:
         bf:eb:c7:f8:a0:39:da:54:11:92:fd:24:21:bb:ff:7b:f0:98:
         b1:ef:15:2d:a4:bd:a7:35:b2:61:69:57:97:b1:53:80:19:3b:
         5b:51:f8:33:e2:42:86:06:3c:0e:74:c0:1f:01:b0:9c:03:38:
         91:3e:59:ec:f7:95:da:11:bd:96:18:00:dc:dd:d9:4a:ae:c9:
         19:7a:c3:65:a8:b4:1c:97:88:13:d1:86:e3:76:fe:5e:1a:f1:
         88:f2:82:ca:cb:40:a7:12:fa:fc:e5:42:cf:58:48:9f:df:79:
         13:1d:ba:46:34:bc:35:6a:80:2a:2a:ba:81:8d:67:d7:ff:f3:
         05:cd:c8:5c:b7:db:e6:66:89:c1:34:e8:42:f4:39:72:85:65:
         4f:8c:ba:46:9c:4d:f1:02:59:cc:3d:99:c2:e9:7e:d2:74:ed:
         91:1e:2e:ec:57:43:6d:91:20:3c:96:ce:e6:32:a6:e5:d6:8b:
         78:94:6f:69:03:44:90:af:71:f0:e2:4c:ec:b3:19:59:c5:1a:
         97:01:26:05:ff:d5:90:e7:49:13:eb:6e:22:a7:b3:b8:ed:50:
         0c:92:89:6b:d1:73:89:81:c5:f7:bd:1a:8f:a1:86:75:59:83:
         c5:df:01:f1:36:18:8b:3b:6d:70:18:c1:2c:57:30:cb:4b:c6:
         12:40:66:bf:9c:d4:57:ac:11:d1:6e:5e:da:c7:7a:0d:c1:b3:
         e7:62:a9:09:d7:01:3f:9f:a4:fb:8b:54:3b:b0:d5:eb:15:91:
         8b:3f:87:cc:f2:56:24:a8:c3:69:95:d7:bf:25:f4:05:97:8f:
         5f:51:8a:32:36:92:85:26:de:19:5f:b7:c1:2c:41:82:e9:7f:
         70:73:1b:9a:28:4e:cd:0d:e5:75:18:81:c2:c1:38:4e:c8:a0:
         bf:a5:b4:4f:54:fb:e8:92:b3:ec:29:b0:62:cd:dc:dd:f4:33:
         1b:ee:6b:ee:5d:cb:06:62:34:34:0b:87:92:ec:39:82:b5:5d:
         d4:22:b2:e3:0a:32:50:56:f8:01:ea:d9:08:54:f6:ab:2f:9b:
         47:47:5e:44:b6:11:6b:5e:20:9e:cc:67:b1:8b:26:90:da:f1:
         57:c4:c4:51:67:6d:36:f3:35:df:5e:c5:3d:84:ad:e1:84:e8:
         c7:88:13:13:0e:a5:af:8d:7e:25:4c:4a:19:1a:05:3c:4a:10:
         fd:56:1a:87:6f:fa:ef:09:4f:8b:29:3c:8d:b9:f3:23:38:f8:
         6f:4a:39:5f:4a:3f:53:99
-----BEGIN CERTIFICATE-----
MIIFXDCCA0SgAwIBAgIBATANBgkqhkiG9w0BAQsFADCBjTELMAkGA1UEBhMCVFcx
DzANBgNVBAgMBlRhaXdhbjEPMA0GA1UEBwwGVGFpcGVpMQswCQYDVQQKDAJEUzEM
MAoGA1UECwwDQ1BFMRIwEAYDVQQDDAkzZGUyNHhwbG0xLTArBgkqhkiG9w0BCQEW
HmFkbWluX3BsYXRmb3JtQGRzbWFpbC5kc3R3LmNvbTAgFw0yNDAxMjMwODMzMzda
GA8yMTIzMTIzMDA4MzMzN1owUTELMAkGA1UEBhMCVFcxDzANBgNVBAgMBlRhaXdh
bjEPMA0GA1UEBwwGVGFpcGVpMQwwCgYDVQQKDANDUEUxEjAQBgNVBAMMCTNkZTI0
eHBsbTCCASIwDQYJKoZIhvcNAQEBBQADggEPADCCAQoCggEBAO1434bNY6PPTLic
Vb+q+z3kdp4smBapYQUhZiOu8QMMoGP51TlMC1WBKXfkQRzvrTNOAoHKSOo2CNXc
EowQfYkAdY8BaNmZNqE2HskYAyc4xbuxMbMGYQwMOyn0kUgg20Om8yMylIot9nwY
Gw7lMaJJPnry0k0VExPwlKolp9PGE0cqmLb9+OkUALkfAVRHI6HJAqweRkPSKPxf
RXhRMwJ55nGJvI47lcXZwKlXPv9z1zj2twt6dJqLVMviSpHr5Iwu8IdRO7cG/pIw
AVwPpnnD8zp4YZttSQakEO6A4BlA450MJgZ778ahUz5g9B/HMA0RAWyva+9PibgV
oaxir/MCAwEAAaOB/zCB/DAdBgNVHQ4EFgQUSxrnWY+t77Xc+bNVdRmv4c83K6Uw
HwYDVR0jBBgwFoAUd8qhKKU0RuDw/B+u7qgrwmERPh8wCQYDVR0TBAIwADALBgNV
HQ8EBAMCBaAwdAYDVR0RBG0wa4IQM2RlMjR4cGxtLmNvbS50d4IQdW50cnVzdGVk
LmNvbS50d4IMZGJwbG0uY29tLnR3gg1mdHNwbG0uY29tLnR3ghB3aWRnZXRwbG0u
Y29tLnR3hwR/AAABhxAAAAAAAAAAAAAAAAAAAAABMCwGCWCGSAGG+EIBDQQfFh1P
cGVuU1NMIEdlbmVyYXRlZCBDZXJ0aWZpY2F0ZTANBgkqhkiG9w0BAQsFAAOCAgEA
r3UBMnRHWvUkAZmNZRfmALmWyDBGq83a01InSamhbUy8+Zepv+vH+KA52lQRkv0k
Ibv/e/CYse8VLaS9pzWyYWlXl7FTgBk7W1H4M+JChgY8DnTAHwGwnAM4kT5Z7PeV
2hG9lhgA3N3ZSq7JGXrDZai0HJeIE9GG43b+XhrxiPKCystApxL6/OVCz1hIn995
Ex26RjS8NWqAKiq6gY1n1//zBc3IXLfb5maJwTToQvQ5coVlT4y6RpxN8QJZzD2Z
wul+0nTtkR4u7FdDbZEgPJbO5jKm5daLeJRvaQNEkK9x8OJM7LMZWcUalwEmBf/V
kOdJE+tuIqezuO1QDJKJa9FziYHF970aj6GGdVmDxd8B8TYYizttcBjBLFcwy0vG
EkBmv5zUV6wR0W5e2sd6DcGz52KpCdcBP5+k+4tUO7DV6xWRiz+HzPJWJKjDaZXX
vyX0BZePX1GKMjaShSbeGV+3wSxBgul/cHMbmihOzQ3ldRiBwsE4Tsigv6W0T1T7
6JKz7CmwYs3c3fQzG+5r7l3LBmI0NAuHkuw5grVd1CKy4woyUFb4AerZCFT2qy+b
R0deRLYRa14gnsxnsYsmkNrxV8TEUWdtNvM1317FPYSt4YTox4gTEw6lr41+JUxK
GRoFPEoQ/VYah2/67wlPiyk8jbnzIzj4b0o5X0o/U5k=
-----END CERTIFICATE-----
